target datalayout = "e-m:e-p270:32:32-p271:32:32-p272:64:64-i64:64-i128:128-f80:128-n8:16:32:64-S128"
target triple = "x86_64-unknown-linux-gnu"

%"class.icu_75::NFSubstitution" = type { %"class.icu_75::UObject", i32, ptr, ptr }
%"class.icu_75::UObject" = type { ptr }
%"class.icu_75::UnicodeString" = type { %"class.icu_75::Replaceable", %"union.icu_75::UnicodeString::StackBufferOrFields" }
%"class.icu_75::Replaceable" = type { %"class.icu_75::UObject" }
%"union.icu_75::UnicodeString::StackBufferOrFields" = type { %struct.anon.0, [32 x i8] }
%struct.anon.0 = type { i16, i32, i32, ptr }
%"class.icu_75::ConstChar16Ptr" = type { ptr }
%"class.icu_75::ModulusSubstitution" = type { %"class.icu_75::NFSubstitution", i64, ptr }

@_ZL26gGreaterGreaterGreaterThan = internal constant [4 x i16] [i16 62, i16 62, i16 62, i16 0], align 2

; Function Attrs: mustprogress nounwind uwtable
define linkonce_odr noundef ptr @_ZNK6icu_7514ConstChar16Ptr3getEv(ptr noundef nonnull align 8 dereferenceable(8) %this) #0 comdat align 2 {
entry:
  %this.addr = alloca ptr, align 8
  store ptr %this, ptr %this.addr, align 8
  %this1 = load ptr, ptr %this.addr, align 8
  %p_ = getelementptr inbounds %"class.icu_75::ConstChar16Ptr", ptr %this1, i32 0, i32 0
  %0 = load ptr, ptr %p_, align 8
  ret ptr %0
}

; Function Attrs: mustprogress nounwind uwtable
define linkonce_odr noundef i32 @_ZNK6icu_7513UnicodeString14getShortLengthEv(ptr noundef nonnull align 8 dereferenceable(64) %this) #0 comdat align 2 {
entry:
  %this.addr = alloca ptr, align 8
  store ptr %this, ptr %this.addr, align 8
  %this1 = load ptr, ptr %this.addr, align 8
  %fUnion = getelementptr inbounds %"class.icu_75::UnicodeString", ptr %this1, i32 0, i32 1
  %fLengthAndFlags = getelementptr inbounds %struct.anon.0, ptr %fUnion, i32 0, i32 0
  %0 = load i16, ptr %fLengthAndFlags, align 8
  %conv = sext i16 %0 to i32
  %shr = ashr i32 %conv, 5
  ret i32 %shr
}

; Function Attrs: mustprogress nounwind uwtable
define linkonce_odr noundef signext i8 @_ZNK6icu_7513UnicodeString14hasShortLengthEv(ptr noundef nonnull align 8 dereferenceable(64) %this) #0 comdat align 2 {
entry:
  %this.addr = alloca ptr, align 8
  store ptr %this, ptr %this.addr, align 8
  %this1 = load ptr, ptr %this.addr, align 8
  %fUnion = getelementptr inbounds %"class.icu_75::UnicodeString", ptr %this1, i32 0, i32 1
  %fLengthAndFlags = getelementptr inbounds %struct.anon.0, ptr %fUnion, i32 0, i32 0
  %0 = load i16, ptr %fLengthAndFlags, align 8
  %conv = sext i16 %0 to i32
  %cmp = icmp sge i32 %conv, 0
  %conv2 = zext i1 %cmp to i8
  ret i8 %conv2
}

; Function Attrs: mustprogress uwtable
define linkonce_odr noundef ptr @_ZNK6icu_7514ConstChar16PtrcvPKDsEv(ptr noundef nonnull align 8 dereferenceable(8) %this) #2 comdat align 2 {
entry:
  %this.addr = alloca ptr, align 8
  store ptr %this, ptr %this.addr, align 8
  %this1 = load ptr, ptr %this.addr, align 8
  %call = call noundef ptr @_ZNK6icu_7514ConstChar16Ptr3getEv(ptr noundef nonnull align 8 dereferenceable(8) %this1)
  ret ptr %call
}

; Function Attrs: mustprogress uwtable
define linkonce_odr noundef i32 @_ZNK6icu_7513UnicodeString6lengthEv(ptr noundef nonnull align 8 dereferenceable(64) %this) #2 comdat align 2 {
entry:
  %this.addr = alloca ptr, align 8
  store ptr %this, ptr %this.addr, align 8
  %this1 = load ptr, ptr %this.addr, align 8
  %call = call noundef signext i8 @_ZNK6icu_7513UnicodeString14hasShortLengthEv(ptr noundef nonnull align 8 dereferenceable(64) %this1)
  %tobool = icmp ne i8 %call, 0
  br i1 %tobool, label %cond.true, label %cond.false

cond.true:                                        ; preds = %entry
  %call2 = call noundef i32 @_ZNK6icu_7513UnicodeString14getShortLengthEv(ptr noundef nonnull align 8 dereferenceable(64) %this1)
  br label %cond.end

cond.false:                                       ; preds = %entry
  %fUnion = getelementptr inbounds %"class.icu_75::UnicodeString", ptr %this1, i32 0, i32 1
  %fLength = getelementptr inbounds %struct.anon.0, ptr %fUnion, i32 0, i32 1
  %0 = load i32, ptr %fLength, align 4
  br label %cond.end

cond.end:                                         ; preds = %cond.false, %cond.true
  %cond = phi i32 [ %call2, %cond.true ], [ %0, %cond.false ]
  ret i32 %cond
}

; Function Attrs: mustprogress nounwind uwtable
define linkonce_odr void @_ZN6icu_7514ConstChar16PtrD2Ev(ptr noundef nonnull align 8 dereferenceable(8) %this) unnamed_addr #0 comdat align 2 {
entry:
  %this.addr = alloca ptr, align 8
  store ptr %this, ptr %this.addr, align 8
  %this1 = load ptr, ptr %this.addr, align 8
  %p_ = getelementptr inbounds %"class.icu_75::ConstChar16Ptr", ptr %this1, i32 0, i32 0
  %0 = load ptr, ptr %p_, align 8
  call void asm sideeffect "", "rm,~{memory},~{dirflag},~{fpsr},~{flags}"(ptr %0) #6, !srcloc !4
  ret void
}

; Function Attrs: mustprogress uwtable
define linkonce_odr noundef signext i8 @_ZNK6icu_7513UnicodeString7compareENS_14ConstChar16PtrEi(ptr noundef nonnull align 8 dereferenceable(64) %this, ptr noundef %srcChars, i32 noundef %srcLength) #2 comdat align 2 {
entry:
  %this.addr = alloca ptr, align 8
  %srcChars.indirect_addr = alloca ptr, align 8
  %srcLength.addr = alloca i32, align 4
  store ptr %this, ptr %this.addr, align 8
  store ptr %srcChars, ptr %srcChars.indirect_addr, align 8
  store i32 %srcLength, ptr %srcLength.addr, align 4
  %this1 = load ptr, ptr %this.addr, align 8
  %call = call noundef i32 @_ZNK6icu_7513UnicodeString6lengthEv(ptr noundef nonnull align 8 dereferenceable(64) %this1)
  %call2 = call noundef ptr @_ZNK6icu_7514ConstChar16PtrcvPKDsEv(ptr noundef nonnull align 8 dereferenceable(8) %srcChars)
  %0 = load i32, ptr %srcLength.addr, align 4
  %call3 = call noundef signext i8 @_ZNK6icu_7513UnicodeString9doCompareEiiPKDsii(ptr noundef nonnull align 8 dereferenceable(64) %this1, i32 noundef 0, i32 noundef %call, ptr noundef %call2, i32 noundef 0, i32 noundef %0)
  ret i8 %call3
}

; Function Attrs: mustprogress nounwind uwtable
define linkonce_odr void @_ZN6icu_7514ConstChar16PtrC2EPKDs(ptr noundef nonnull align 8 dereferenceable(8) %this, ptr noundef %p) unnamed_addr #0 comdat align 2 {
entry:
  %this.addr = alloca ptr, align 8
  %p.addr = alloca ptr, align 8
  store ptr %this, ptr %this.addr, align 8
  store ptr %p, ptr %p.addr, align 8
  %this1 = load ptr, ptr %this.addr, align 8
  %p_ = getelementptr inbounds %"class.icu_75::ConstChar16Ptr", ptr %this1, i32 0, i32 0
  %0 = load ptr, ptr %p.addr, align 8
  store ptr %0, ptr %p_, align 8
  ret void
}

; Function Attrs: mustprogress uwtable
define void @_ZN6icu_7519ModulusSubstitutionC2EiPKNS_6NFRuleES3_PKNS_9NFRuleSetERKNS_13UnicodeStringER10UErrorCode(ptr noundef nonnull align 8 dereferenceable(48) %this, i32 noundef %_pos, ptr noundef %rule, ptr noundef %predecessor, ptr noundef %_ruleSet, ptr noundef nonnull align 8 dereferenceable(64) %description, ptr noundef nonnull align 4 dereferenceable(4) %status) unnamed_addr #2 align 2 personality ptr @__gxx_personality_v0 {
entry:
  %this.addr = alloca ptr, align 8
  %_pos.addr = alloca i32, align 4
  %rule.addr = alloca ptr, align 8
  %predecessor.addr = alloca ptr, align 8
  %_ruleSet.addr = alloca ptr, align 8
  %description.addr = alloca ptr, align 8
  %status.addr = alloca ptr, align 8
  %exn.slot = alloca ptr, align 8
  %ehselector.slot = alloca i32, align 4
  %agg.tmp = alloca %"class.icu_75::ConstChar16Ptr", align 8
  store ptr %this, ptr %this.addr, align 8
  store i32 %_pos, ptr %_pos.addr, align 4
  store ptr %rule, ptr %rule.addr, align 8
  store ptr %predecessor, ptr %predecessor.addr, align 8
  store ptr %_ruleSet, ptr %_ruleSet.addr, align 8
  store ptr %description, ptr %description.addr, align 8
  store ptr %status, ptr %status.addr, align 8
  %this1 = load ptr, ptr %this.addr, align 8
  %0 = load i32, ptr %_pos.addr, align 4
  %1 = load ptr, ptr %_ruleSet.addr, align 8
  %2 = load ptr, ptr %description.addr, align 8
  %3 = load ptr, ptr %status.addr, align 8
  call void @_ZN6icu_7514NFSubstitutionC2EiPKNS_9NFRuleSetERKNS_13UnicodeStringER10UErrorCode(ptr noundef nonnull align 8 dereferenceable(32) %this1, i32 noundef %0, ptr noundef %1, ptr noundef nonnull align 8 dereferenceable(64) %2, ptr noundef nonnull align 4 dereferenceable(4) %3)
  store ptr getelementptr inbounds ({ [17 x ptr] }, ptr @_ZTVN6icu_7519ModulusSubstitutionE, i32 0, i32 0, i32 2), ptr %this1, align 8
  %divisor = getelementptr inbounds %"class.icu_75::ModulusSubstitution", ptr %this1, i32 0, i32 1
  %4 = load ptr, ptr %rule.addr, align 8
  %call = invoke noundef i64 @_ZNK6icu_756NFRule10getDivisorEv(ptr noundef nonnull align 8 dereferenceable(112) %4)
          to label %invoke.cont unwind label %lpad

invoke.cont:                                      ; preds = %entry
  store i64 %call, ptr %divisor, align 8
  %ruleToUse = getelementptr inbounds %"class.icu_75::ModulusSubstitution", ptr %this1, i32 0, i32 2
  store ptr null, ptr %ruleToUse, align 8
  %divisor2 = getelementptr inbounds %"class.icu_75::ModulusSubstitution", ptr %this1, i32 0, i32 1
  %5 = load i64, ptr %divisor2, align 8
  %cmp = icmp eq i64 %5, 0
  br i1 %cmp, label %if.then, label %if.end

if.then:                                          ; preds = %invoke.cont
  %6 = load ptr, ptr %status.addr, align 8
  store i32 9, ptr %6, align 4
  br label %if.end

lpad:                                             ; preds = %if.end, %entry
  %7 = landingpad { ptr, i32 }
          cleanup
  %8 = extractvalue { ptr, i32 } %7, 0
  store ptr %8, ptr %exn.slot, align 8
  %9 = extractvalue { ptr, i32 } %7, 1
  store i32 %9, ptr %ehselector.slot, align 4
  br label %ehcleanup

if.end:                                           ; preds = %if.then, %invoke.cont
  %10 = load ptr, ptr %description.addr, align 8
  invoke void @_ZN6icu_7514ConstChar16PtrC2EPKDs(ptr noundef nonnull align 8 dereferenceable(8) %agg.tmp, ptr noundef @_ZL26gGreaterGreaterGreaterThan)
          to label %invoke.cont3 unwind label %lpad

invoke.cont3:                                     ; preds = %if.end
  %call6 = invoke noundef signext i8 @_ZNK6icu_7513UnicodeString7compareENS_14ConstChar16PtrEi(ptr noundef nonnull align 8 dereferenceable(64) %10, ptr noundef %agg.tmp, i32 noundef 3)
          to label %invoke.cont5 unwind label %lpad4

invoke.cont5:                                     ; preds = %invoke.cont3
  %conv = sext i8 %call6 to i32
  %cmp7 = icmp eq i32 0, %conv
  call void @_ZN6icu_7514ConstChar16PtrD2Ev(ptr noundef nonnull align 8 dereferenceable(8) %agg.tmp) #6
  br i1 %cmp7, label %if.then8, label %if.end10

if.then8:                                         ; preds = %invoke.cont5
  %11 = load ptr, ptr %predecessor.addr, align 8
  %ruleToUse9 = getelementptr inbounds %"class.icu_75::ModulusSubstitution", ptr %this1, i32 0, i32 2
  store ptr %11, ptr %ruleToUse9, align 8
  br label %if.end10

lpad4:                                            ; preds = %invoke.cont3
  %12 = landingpad { ptr, i32 }
          cleanup
  %13 = extractvalue { ptr, i32 } %12, 0
  store ptr %13, ptr %exn.slot, align 8
  %14 = extractvalue { ptr, i32 } %12, 1
  store i32 %14, ptr %ehselector.slot, align 4
  call void @_ZN6icu_7514ConstChar16PtrD2Ev(ptr noundef nonnull align 8 dereferenceable(8) %agg.tmp) #6
  br label %ehcleanup

if.end10:                                         ; preds = %if.then8, %invoke.cont5
  ret void

ehcleanup:                                        ; preds = %lpad4, %lpad
  call void @_ZN6icu_7514NFSubstitutionD2Ev(ptr noundef nonnull align 8 dereferenceable(32) %this1) #6
  br label %eh.resume

eh.resume:                                        ; preds = %ehcleanup
  %exn = load ptr, ptr %exn.slot, align 8
  %sel = load i32, ptr %ehselector.slot, align 4
  %lpad.val = insertvalue { ptr, i32 } poison, ptr %exn, 0
  %lpad.val11 = insertvalue { ptr, i32 } %lpad.val, i32 %sel, 1
  resume { ptr, i32 } %lpad.val11
}