; Function Attrs: mustprogress uwtable
define void @_ZN6icu_7519ModulusSubstitutionC2EiPKNS_6NFRuleES3_PKNS_9NFRuleSetERKNS_13UnicodeStringER10UErrorCode(ptr noundef nonnull align 8 dereferenceable(48) %this, i32 noundef %_pos, ptr noundef %rule, ptr noundef %predecessor, ptr noundef %_ruleSet, ptr noundef nonnull align 8 dereferenceable(64) %description, ptr noundef nonnull align 4 dereferenceable(4) %status) unnamed_addr #2 align 2 personality ptr @__gxx_personality_v0 {
entry:
  tail call void @_ZN6icu_7514NFSubstitutionC2EiPKNS_9NFRuleSetERKNS_13UnicodeStringER10UErrorCode(ptr noundef nonnull align 8 dereferenceable(32) %this, i32 noundef %_pos, ptr noundef %_ruleSet, ptr noundef nonnull align 8 dereferenceable(64) %description, ptr noundef nonnull align 4 dereferenceable(4) %status)
  store ptr getelementptr inbounds ({ [17 x ptr] }, ptr @_ZTVN6icu_7519ModulusSubstitutionE, i64 0, i32 0, i64 2), ptr %this, align 8
  %call = invoke noundef i64 @_ZNK6icu_756NFRule10getDivisorEv(ptr noundef nonnull align 8 dereferenceable(112) %rule)
          to label %invoke.cont unwind label %lpad

invoke.cont:                                      ; preds = %entry
  %divisor = getelementptr inbounds i8, ptr %this, i64 32
  store i64 %call, ptr %divisor, align 8
  %ruleToUse = getelementptr inbounds i8, ptr %this, i64 40
  store ptr null, ptr %ruleToUse, align 8
  %cmp = icmp eq i64 %call, 0
  br i1 %cmp, label %if.then, label %if.end

if.then:                                          ; preds = %invoke.cont
  store i32 9, ptr %status, align 4
  br label %if.end

lpad:                                             ; preds = %entry
  %0 = landingpad { ptr, i32 }
          cleanup
  br label %ehcleanup

if.end:                                           ; preds = %if.then, %invoke.cont
  %fUnion.i.i.i = getelementptr inbounds i8, ptr %description, i64 8
  %1 = load i16, ptr %fUnion.i.i.i, align 8
  %cmp.i.i.i = icmp slt i16 %1, 0
  %2 = ashr i16 %1, 5
  %shr.i.i.i = sext i16 %2 to i32
  %fLength.i.i = getelementptr inbounds i8, ptr %description, i64 12
  %3 = load i32, ptr %fLength.i.i, align 4
  %cond.i.i = select i1 %cmp.i.i.i, i32 %3, i32 %shr.i.i.i
  %call3.i4 = invoke noundef signext i8 @_ZNK6icu_7513UnicodeString9doCompareEiiPKDsii(ptr noundef nonnull align 8 dereferenceable(64) %description, i32 noundef 0, i32 noundef %cond.i.i, ptr noundef nonnull @_ZL26gGreaterGreaterGreaterThan, i32 noundef 0, i32 noundef 3)
          to label %invoke.cont5 unwind label %lpad4

invoke.cont5:                                     ; preds = %if.end
  %cmp7 = icmp eq i8 %call3.i4, 0
  tail call void asm sideeffect "", "rm,~{memory},~{dirflag},~{fpsr},~{flags}"(ptr nonnull @_ZL26gGreaterGreaterGreaterThan) #11, !srcloc !7
  br i1 %cmp7, label %if.then8, label %if.end10

if.then8:                                         ; preds = %invoke.cont5
  store ptr %predecessor, ptr %ruleToUse, align 8
  br label %if.end10

lpad4:                                            ; preds = %if.end
  %4 = landingpad { ptr, i32 }
          cleanup
  tail call void asm sideeffect "", "rm,~{memory},~{dirflag},~{fpsr},~{flags}"(ptr nonnull @_ZL26gGreaterGreaterGreaterThan) #11, !srcloc !7
  br label %ehcleanup

if.end10:                                         ; preds = %if.then8, %invoke.cont5
  ret void

ehcleanup:                                        ; preds = %lpad4, %lpad
  %.pn = phi { ptr, i32 } [ %4, %lpad4 ], [ %0, %lpad ]
  tail call void @_ZN6icu_7514NFSubstitutionD2Ev(ptr noundef nonnull align 8 dereferenceable(32) %this) #11
  resume { ptr, i32 } %.pn
}